; Function Attrs: nounwind uwtable
define range(i32 0, 2) i32 @Abc_NtkMfsEdgePower(ptr noundef %0, ptr noundef %1) local_unnamed_addr #0 {
  %3 = getelementptr i8, ptr %1, i64 28
  %.val26 = load i32, ptr %3, align 4, !tbaa !68
  %4 = icmp sgt i32 %.val26, 0
  br i1 %4, label %.lr.ph, label %.critedge

.lr.ph:                                           ; preds = %2
  %5 = getelementptr i8, ptr %1, i64 32
  %6 = getelementptr i8, ptr %0, i64 216
  %7 = load ptr, ptr %6, align 8, !tbaa !95
  %8 = icmp eq ptr %7, null
  br i1 %8, label %.critedge, label %.lr.ph.split

.lr.ph.splitthread-pre-split:                     ; preds = %Abc_MfsObjProb.exit24.thread
  %.val20.pr = load ptr, ptr %6, align 8, !tbaa !95
  br label %.lr.ph.split

.lr.ph.split:                                     ; preds = %.lr.ph, %.lr.ph.splitthread-pre-split
  %.val20 = phi ptr [ %.val20.pr, %.lr.ph.splitthread-pre-split ], [ %7, %.lr.ph ]
  %indvars.iv = phi i64 [ %indvars.iv.next, %.lr.ph.splitthread-pre-split ], [ 0, %.lr.ph ]
  %.not.i = icmp eq ptr %.val20, null
  br i1 %.not.i, label %Abc_MfsObjProb.exit24.thread, label %9

9:                                                ; preds = %.lr.ph.split
  %.val17 = load ptr, ptr %1, align 8, !tbaa !3
  %10 = getelementptr i8, ptr %.val17, i64 32
  %.val17.val = load ptr, ptr %10, align 8, !tbaa !70
  %11 = getelementptr i8, ptr %.val17.val, i64 8
  %.val17.val.val = load ptr, ptr %11, align 8, !tbaa !16
  %.val18 = load ptr, ptr %5, align 8, !tbaa !69
  %12 = getelementptr inbounds nuw i32, ptr %.val18, i64 %indvars.iv
  %13 = load i32, ptr %12, align 4, !tbaa !56
  %14 = sext i32 %13 to i64
  %15 = getelementptr inbounds ptr, ptr %.val17.val.val, i64 %14
  %16 = load ptr, ptr %15, align 8, !tbaa !17
  %17 = getelementptr inbounds nuw i8, ptr %16, i64 16
  %18 = load i32, ptr %17, align 8, !tbaa !64
  %19 = getelementptr i8, ptr %.val20, i64 4
  %.val.i = load i32, ptr %19, align 4, !tbaa !42
  %20 = icmp slt i32 %18, %.val.i
  br i1 %20, label %Abc_MfsObjProb.exit, label %Abc_MfsObjProb.exit24.thread

Abc_MfsObjProb.exit:                              ; preds = %9
  %21 = getelementptr i8, ptr %.val20, i64 8
  %.val5.i = load ptr, ptr %21, align 8, !tbaa !43
  %22 = sext i32 %18 to i64
  %23 = getelementptr inbounds i32, ptr %.val5.i, i64 %22
  %24 = load float, ptr %23, align 4, !tbaa !56
  %25 = fpext float %24 to double
  %26 = fcmp ult double %25, 3.500000e-01
  br i1 %26, label %Abc_MfsObjProb.exit24, label %27

27:                                               ; preds = %Abc_MfsObjProb.exit
  %28 = trunc nuw nsw i64 %indvars.iv to i32
  %29 = tail call i32 @Abc_NtkMfsSolveSatResub(ptr noundef nonnull %0, ptr noundef nonnull %1, i32 noundef %28, i32 noundef 0, i32 noundef 0)
  %.not16 = icmp eq i32 %29, 0
  br i1 %.not16, label %Abc_MfsObjProb.exit24.thread, label %.critedge

Abc_MfsObjProb.exit24:                            ; preds = %Abc_MfsObjProb.exit
  %30 = getelementptr i8, ptr %.val20, i64 8
  %.val5.i23 = load ptr, ptr %30, align 8, !tbaa !43
  %31 = sext i32 %18 to i64
  %32 = getelementptr inbounds i32, ptr %.val5.i23, i64 %31
  %33 = load float, ptr %32, align 4, !tbaa !56
  %34 = fcmp ult float %33, 2.500000e-01
  br i1 %34, label %Abc_MfsObjProb.exit24.thread, label %35

35:                                               ; preds = %Abc_MfsObjProb.exit24
  %36 = trunc nuw nsw i64 %indvars.iv to i32
  %37 = tail call i32 @Abc_NtkMfsSolveSatResub(ptr noundef nonnull %0, ptr noundef nonnull %1, i32 noundef %36, i32 noundef 1, i32 noundef 0)
  %.not = icmp eq i32 %37, 0
  br i1 %.not, label %Abc_MfsObjProb.exit24.thread, label %.critedge

Abc_MfsObjProb.exit24.thread:                     ; preds = %9, %.lr.ph.split, %27, %35, %Abc_MfsObjProb.exit24
  %indvars.iv.next = add nuw nsw i64 %indvars.iv, 1
  %.val = load i32, ptr %3, align 4, !tbaa !68
  %38 = sext i32 %.val to i64
  %39 = icmp slt i64 %indvars.iv.next, %38
  br i1 %39, label %.lr.ph.splitthread-pre-split, label %.critedge, !llvm.loop !107

.critedge:                                        ; preds = %27, %35, %Abc_MfsObjProb.exit24.thread, %.lr.ph, %2
  %.015 = phi i32 [ 0, %2 ], [ 0, %.lr.ph ], [ 0, %Abc_MfsObjProb.exit24.thread ], [ 1, %35 ], [ 1, %27 ]
  ret i32 %.015
}